target datalayout = "e-m:e-p270:32:32-p271:32:32-p272:64:64-i64:64-i128:128-f80:128-n8:16:32:64-S128"
target triple = "x86_64-pc-linux-gnu"

%struct.VP8Io = type { i32, i32, i32, i32, i32, ptr, ptr, ptr, i32, i32, ptr, ptr, ptr, ptr, i32, i64, ptr, i32, i32, i32, i32, i32, i32, i32, i32, i32, ptr }
%struct.WebPDecoderOptions = type { i32, i32, i32, i32, i32, i32, i32, i32, i32, i32, i32, i32, i32, i32, [5 x i32] }

; Function Attrs: nounwind uwtable
define internal i32 @WebPCheckCropDimensionsBasic(i32 noundef %0, i32 noundef %1, i32 noundef %2, i32 noundef %3) #0 {
  %5 = alloca i32, align 4
  %6 = alloca i32, align 4
  %7 = alloca i32, align 4
  %8 = alloca i32, align 4
  store i32 %0, ptr %5, align 4, !tbaa !7
  store i32 %1, ptr %6, align 4, !tbaa !7
  store i32 %2, ptr %7, align 4, !tbaa !7
  store i32 %3, ptr %8, align 4, !tbaa !7
  %9 = load i32, ptr %5, align 4, !tbaa !7
  %10 = icmp slt i32 %9, 0
  br i1 %10, label %20, label %11

11:                                               ; preds = %4
  %12 = load i32, ptr %6, align 4, !tbaa !7
  %13 = icmp slt i32 %12, 0
  br i1 %13, label %20, label %14

14:                                               ; preds = %11
  %15 = load i32, ptr %7, align 4, !tbaa !7
  %16 = icmp sle i32 %15, 0
  br i1 %16, label %20, label %17

17:                                               ; preds = %14
  %18 = load i32, ptr %8, align 4, !tbaa !7
  %19 = icmp sle i32 %18, 0
  br label %20

20:                                               ; preds = %17, %14, %11, %4
  %21 = phi i1 [ true, %14 ], [ true, %11 ], [ true, %4 ], [ %19, %17 ]
  %22 = xor i1 %21, true
  %23 = zext i1 %22 to i32
  ret i32 %23
}

; Function Attrs: nounwind uwtable
define hidden i32 @WebPCheckCropDimensions(i32 noundef %0, i32 noundef %1, i32 noundef %2, i32 noundef %3, i32 noundef %4, i32 noundef %5) #0 {
  %7 = alloca i32, align 4
  %8 = alloca i32, align 4
  %9 = alloca i32, align 4
  %10 = alloca i32, align 4
  %11 = alloca i32, align 4
  %12 = alloca i32, align 4
  store i32 %0, ptr %7, align 4, !tbaa !7
  store i32 %1, ptr %8, align 4, !tbaa !7
  store i32 %2, ptr %9, align 4, !tbaa !7
  store i32 %3, ptr %10, align 4, !tbaa !7
  store i32 %4, ptr %11, align 4, !tbaa !7
  store i32 %5, ptr %12, align 4, !tbaa !7
  %13 = load i32, ptr %9, align 4, !tbaa !7
  %14 = load i32, ptr %10, align 4, !tbaa !7
  %15 = load i32, ptr %11, align 4, !tbaa !7
  %16 = load i32, ptr %12, align 4, !tbaa !7
  %17 = call i32 @WebPCheckCropDimensionsBasic(i32 noundef %13, i32 noundef %14, i32 noundef %15, i32 noundef %16)
  %18 = icmp ne i32 %17, 0
  br i1 %18, label %19, label %50

19:                                               ; preds = %6
  %20 = load i32, ptr %9, align 4, !tbaa !7
  %21 = load i32, ptr %7, align 4, !tbaa !7
  %22 = icmp sge i32 %20, %21
  br i1 %22, label %47, label %23

23:                                               ; preds = %19
  %24 = load i32, ptr %11, align 4, !tbaa !7
  %25 = load i32, ptr %7, align 4, !tbaa !7
  %26 = icmp sgt i32 %24, %25
  br i1 %26, label %47, label %27

27:                                               ; preds = %23
  %28 = load i32, ptr %11, align 4, !tbaa !7
  %29 = load i32, ptr %7, align 4, !tbaa !7
  %30 = load i32, ptr %9, align 4, !tbaa !7
  %31 = sub nsw i32 %29, %30
  %32 = icmp sgt i32 %28, %31
  br i1 %32, label %47, label %33

33:                                               ; preds = %27
  %34 = load i32, ptr %10, align 4, !tbaa !7
  %35 = load i32, ptr %8, align 4, !tbaa !7
  %36 = icmp sge i32 %34, %35
  br i1 %36, label %47, label %37

37:                                               ; preds = %33
  %38 = load i32, ptr %12, align 4, !tbaa !7
  %39 = load i32, ptr %8, align 4, !tbaa !7
  %40 = icmp sgt i32 %38, %39
  br i1 %40, label %47, label %41

41:                                               ; preds = %37
  %42 = load i32, ptr %12, align 4, !tbaa !7
  %43 = load i32, ptr %8, align 4, !tbaa !7
  %44 = load i32, ptr %10, align 4, !tbaa !7
  %45 = sub nsw i32 %43, %44
  %46 = icmp sgt i32 %42, %45
  br label %47

47:                                               ; preds = %41, %37, %33, %27, %23, %19
  %48 = phi i1 [ true, %37 ], [ true, %33 ], [ true, %27 ], [ true, %23 ], [ true, %19 ], [ %46, %41 ]
  %49 = xor i1 %48, true
  br label %50

50:                                               ; preds = %47, %6
  %51 = phi i1 [ false, %6 ], [ %49, %47 ]
  %52 = zext i1 %51 to i32
  ret i32 %52
}

; Function Attrs: inlinehint nounwind uwtable
define internal i32 @WebPIsRGBMode(i32 noundef %0) #3 {
  %2 = alloca i32, align 4
  store i32 %0, ptr %2, align 4, !tbaa !7
  %3 = load i32, ptr %2, align 4, !tbaa !7
  %4 = icmp ult i32 %3, 11
  %5 = zext i1 %4 to i32
  ret i32 %5
}

; Function Attrs: nounwind uwtable
define hidden i32 @WebPIoInitFromOptions(ptr noundef %0, ptr noundef %1, i32 noundef %2) #0 {
  %4 = alloca i32, align 4
  %5 = alloca ptr, align 8
  %6 = alloca ptr, align 8
  %7 = alloca i32, align 4
  %8 = alloca i32, align 4
  %9 = alloca i32, align 4
  %10 = alloca i32, align 4
  %11 = alloca i32, align 4
  %12 = alloca i32, align 4
  %13 = alloca i32, align 4
  %14 = alloca i32, align 4
  %15 = alloca i32, align 4
  %16 = alloca i32, align 4
  store ptr %0, ptr %5, align 8, !tbaa !96
  store ptr %1, ptr %6, align 8, !tbaa !109
  store i32 %2, ptr %7, align 4, !tbaa !7
  call void @llvm.lifetime.start.p0(i64 4, ptr %8) #7
  %17 = load ptr, ptr %6, align 8, !tbaa !109
  %18 = getelementptr inbounds nuw %struct.VP8Io, ptr %17, i32 0, i32 0
  %19 = load i32, ptr %18, align 8, !tbaa !58
  store i32 %19, ptr %8, align 4, !tbaa !7
  call void @llvm.lifetime.start.p0(i64 4, ptr %9) #7
  %20 = load ptr, ptr %6, align 8, !tbaa !109
  %21 = getelementptr inbounds nuw %struct.VP8Io, ptr %20, i32 0, i32 1
  %22 = load i32, ptr %21, align 4, !tbaa !59
  store i32 %22, ptr %9, align 4, !tbaa !7
  call void @llvm.lifetime.start.p0(i64 4, ptr %10) #7
  store i32 0, ptr %10, align 4, !tbaa !7
  call void @llvm.lifetime.start.p0(i64 4, ptr %11) #7
  store i32 0, ptr %11, align 4, !tbaa !7
  call void @llvm.lifetime.start.p0(i64 4, ptr %12) #7
  %23 = load i32, ptr %8, align 4, !tbaa !7
  store i32 %23, ptr %12, align 4, !tbaa !7
  call void @llvm.lifetime.start.p0(i64 4, ptr %13) #7
  %24 = load i32, ptr %9, align 4, !tbaa !7
  store i32 %24, ptr %13, align 4, !tbaa !7
  %25 = load ptr, ptr %5, align 8, !tbaa !96
  %26 = icmp ne ptr %25, null
  br i1 %26, label %27, label %32

27:                                               ; preds = %3
  %28 = load ptr, ptr %5, align 8, !tbaa !96
  %29 = getelementptr inbounds nuw %struct.WebPDecoderOptions, ptr %28, i32 0, i32 2
  %30 = load i32, ptr %29, align 4, !tbaa !97
  %31 = icmp ne i32 %30, 0
  br label %32

32:                                               ; preds = %27, %3
  %33 = phi i1 [ false, %3 ], [ %31, %27 ]
  %34 = zext i1 %33 to i32
  %35 = load ptr, ptr %6, align 8, !tbaa !109
  %36 = getelementptr inbounds nuw %struct.VP8Io, ptr %35, i32 0, i32 18
  store i32 %34, ptr %36, align 4, !tbaa !110
  %37 = load ptr, ptr %6, align 8, !tbaa !109
  %38 = getelementptr inbounds nuw %struct.VP8Io, ptr %37, i32 0, i32 18
  %39 = load i32, ptr %38, align 4, !tbaa !110
  %40 = icmp ne i32 %39, 0
  br i1 %40, label %41, label %73

41:                                               ; preds = %32
  %42 = load ptr, ptr %5, align 8, !tbaa !96
  %43 = getelementptr inbounds nuw %struct.WebPDecoderOptions, ptr %42, i32 0, i32 5
  %44 = load i32, ptr %43, align 4, !tbaa !100
  store i32 %44, ptr %12, align 4, !tbaa !7
  %45 = load ptr, ptr %5, align 8, !tbaa !96
  %46 = getelementptr inbounds nuw %struct.WebPDecoderOptions, ptr %45, i32 0, i32 6
  %47 = load i32, ptr %46, align 4, !tbaa !101
  store i32 %47, ptr %13, align 4, !tbaa !7
  %48 = load ptr, ptr %5, align 8, !tbaa !96
  %49 = getelementptr inbounds nuw %struct.WebPDecoderOptions, ptr %48, i32 0, i32 3
  %50 = load i32, ptr %49, align 4, !tbaa !98
  store i32 %50, ptr %10, align 4, !tbaa !7
  %51 = load ptr, ptr %5, align 8, !tbaa !96
  %52 = getelementptr inbounds nuw %struct.WebPDecoderOptions, ptr %51, i32 0, i32 4
  %53 = load i32, ptr %52, align 4, !tbaa !99
  store i32 %53, ptr %11, align 4, !tbaa !7
  %54 = load i32, ptr %7, align 4, !tbaa !7
  %55 = call i32 @WebPIsRGBMode(i32 noundef %54)
  %56 = icmp ne i32 %55, 0
  br i1 %56, label %62, label %57

57:                                               ; preds = %41
  %58 = load i32, ptr %10, align 4, !tbaa !7
  %59 = and i32 %58, -2
  store i32 %59, ptr %10, align 4, !tbaa !7
  %60 = load i32, ptr %11, align 4, !tbaa !7
  %61 = and i32 %60, -2
  store i32 %61, ptr %11, align 4, !tbaa !7
  br label %62

62:                                               ; preds = %57, %41
  %63 = load i32, ptr %8, align 4, !tbaa !7
  %64 = load i32, ptr %9, align 4, !tbaa !7
  %65 = load i32, ptr %10, align 4, !tbaa !7
  %66 = load i32, ptr %11, align 4, !tbaa !7
  %67 = load i32, ptr %12, align 4, !tbaa !7
  %68 = load i32, ptr %13, align 4, !tbaa !7
  %69 = call i32 @WebPCheckCropDimensions(i32 noundef %63, i32 noundef %64, i32 noundef %65, i32 noundef %66, i32 noundef %67, i32 noundef %68)
  %70 = icmp ne i32 %69, 0
  br i1 %70, label %72, label %71

71:                                               ; preds = %62
  store i32 0, ptr %4, align 4
  store i32 1, ptr %14, align 4
  br label %190

72:                                               ; preds = %62
  br label %73

73:                                               ; preds = %72, %32
  %74 = load i32, ptr %10, align 4, !tbaa !7
  %75 = load ptr, ptr %6, align 8, !tbaa !109
  %76 = getelementptr inbounds nuw %struct.VP8Io, ptr %75, i32 0, i32 19
  store i32 %74, ptr %76, align 8, !tbaa !111
  %77 = load i32, ptr %11, align 4, !tbaa !7
  %78 = load ptr, ptr %6, align 8, !tbaa !109
  %79 = getelementptr inbounds nuw %struct.VP8Io, ptr %78, i32 0, i32 21
  store i32 %77, ptr %79, align 8, !tbaa !112
  %80 = load i32, ptr %10, align 4, !tbaa !7
  %81 = load i32, ptr %12, align 4, !tbaa !7
  %82 = add nsw i32 %80, %81
  %83 = load ptr, ptr %6, align 8, !tbaa !109
  %84 = getelementptr inbounds nuw %struct.VP8Io, ptr %83, i32 0, i32 20
  store i32 %82, ptr %84, align 4, !tbaa !113
  %85 = load i32, ptr %11, align 4, !tbaa !7
  %86 = load i32, ptr %13, align 4, !tbaa !7
  %87 = add nsw i32 %85, %86
  %88 = load ptr, ptr %6, align 8, !tbaa !109
  %89 = getelementptr inbounds nuw %struct.VP8Io, ptr %88, i32 0, i32 22
  store i32 %87, ptr %89, align 4, !tbaa !114
  %90 = load i32, ptr %12, align 4, !tbaa !7
  %91 = load ptr, ptr %6, align 8, !tbaa !109
  %92 = getelementptr inbounds nuw %struct.VP8Io, ptr %91, i32 0, i32 3
  store i32 %90, ptr %92, align 4, !tbaa !115
  %93 = load i32, ptr %13, align 4, !tbaa !7
  %94 = load ptr, ptr %6, align 8, !tbaa !109
  %95 = getelementptr inbounds nuw %struct.VP8Io, ptr %94, i32 0, i32 4
  store i32 %93, ptr %95, align 8, !tbaa !116
  %96 = load ptr, ptr %5, align 8, !tbaa !96
  %97 = icmp ne ptr %96, null
  br i1 %97, label %98, label %103

98:                                               ; preds = %73
  %99 = load ptr, ptr %5, align 8, !tbaa !96
  %100 = getelementptr inbounds nuw %struct.WebPDecoderOptions, ptr %99, i32 0, i32 7
  %101 = load i32, ptr %100, align 4, !tbaa !102
  %102 = icmp ne i32 %101, 0
  br label %103

103:                                              ; preds = %98, %73
  %104 = phi i1 [ false, %73 ], [ %102, %98 ]
  %105 = zext i1 %104 to i32
  %106 = load ptr, ptr %6, align 8, !tbaa !109
  %107 = getelementptr inbounds nuw %struct.VP8Io, ptr %106, i32 0, i32 23
  store i32 %105, ptr %107, align 8, !tbaa !117
  %108 = load ptr, ptr %6, align 8, !tbaa !109
  %109 = getelementptr inbounds nuw %struct.VP8Io, ptr %108, i32 0, i32 23
  %110 = load i32, ptr %109, align 8, !tbaa !117
  %111 = icmp ne i32 %110, 0
  br i1 %111, label %112, label %134

112:                                              ; preds = %103
  call void @llvm.lifetime.start.p0(i64 4, ptr %15) #7
  %113 = load ptr, ptr %5, align 8, !tbaa !96
  %114 = getelementptr inbounds nuw %struct.WebPDecoderOptions, ptr %113, i32 0, i32 8
  %115 = load i32, ptr %114, align 4, !tbaa !103
  store i32 %115, ptr %15, align 4, !tbaa !7
  call void @llvm.lifetime.start.p0(i64 4, ptr %16) #7
  %116 = load ptr, ptr %5, align 8, !tbaa !96
  %117 = getelementptr inbounds nuw %struct.WebPDecoderOptions, ptr %116, i32 0, i32 9
  %118 = load i32, ptr %117, align 4, !tbaa !104
  store i32 %118, ptr %16, align 4, !tbaa !7
  %119 = load i32, ptr %12, align 4, !tbaa !7
  %120 = load i32, ptr %13, align 4, !tbaa !7
  %121 = call i32 @WebPRescalerGetScaledDimensions(i32 noundef %119, i32 noundef %120, ptr noundef %15, ptr noundef %16)
  %122 = icmp ne i32 %121, 0
  br i1 %122, label %124, label %123

123:                                              ; preds = %112
  store i32 0, ptr %4, align 4
  store i32 1, ptr %14, align 4
  br label %131

124:                                              ; preds = %112
  %125 = load i32, ptr %15, align 4, !tbaa !7
  %126 = load ptr, ptr %6, align 8, !tbaa !109
  %127 = getelementptr inbounds nuw %struct.VP8Io, ptr %126, i32 0, i32 24
  store i32 %125, ptr %127, align 4, !tbaa !118
  %128 = load i32, ptr %16, align 4, !tbaa !7
  %129 = load ptr, ptr %6, align 8, !tbaa !109
  %130 = getelementptr inbounds nuw %struct.VP8Io, ptr %129, i32 0, i32 25
  store i32 %128, ptr %130, align 8, !tbaa !119
  store i32 0, ptr %14, align 4
  br label %131

131:                                              ; preds = %124, %123
  call void @llvm.lifetime.end.p0(i64 4, ptr %16) #7
  call void @llvm.lifetime.end.p0(i64 4, ptr %15) #7
  %132 = load i32, ptr %14, align 4
  switch i32 %132, label %190 [
    i32 0, label %133
  ]

133:                                              ; preds = %131
  br label %134

134:                                              ; preds = %133, %103
  %135 = load ptr, ptr %5, align 8, !tbaa !96
  %136 = icmp ne ptr %135, null
  br i1 %136, label %137, label %142

137:                                              ; preds = %134
  %138 = load ptr, ptr %5, align 8, !tbaa !96
  %139 = getelementptr inbounds nuw %struct.WebPDecoderOptions, ptr %138, i32 0, i32 0
  %140 = load i32, ptr %139, align 4, !tbaa !120
  %141 = icmp ne i32 %140, 0
  br label %142

142:                                              ; preds = %137, %134
  %143 = phi i1 [ false, %134 ], [ %141, %137 ]
  %144 = zext i1 %143 to i32
  %145 = load ptr, ptr %6, align 8, !tbaa !109
  %146 = getelementptr inbounds nuw %struct.VP8Io, ptr %145, i32 0, i32 17
  store i32 %144, ptr %146, align 8, !tbaa !121
  %147 = load ptr, ptr %5, align 8, !tbaa !96
  %148 = icmp eq ptr %147, null
  br i1 %148, label %155, label %149

149:                                              ; preds = %142
  %150 = load ptr, ptr %5, align 8, !tbaa !96
  %151 = getelementptr inbounds nuw %struct.WebPDecoderOptions, ptr %150, i32 0, i32 1
  %152 = load i32, ptr %151, align 4, !tbaa !122
  %153 = icmp ne i32 %152, 0
  %154 = xor i1 %153, true
  br label %155

155:                                              ; preds = %149, %142
  %156 = phi i1 [ true, %142 ], [ %154, %149 ]
  %157 = zext i1 %156 to i32
  %158 = load ptr, ptr %6, align 8, !tbaa !109
  %159 = getelementptr inbounds nuw %struct.VP8Io, ptr %158, i32 0, i32 14
  store i32 %157, ptr %159, align 8, !tbaa !123
  %160 = load ptr, ptr %6, align 8, !tbaa !109
  %161 = getelementptr inbounds nuw %struct.VP8Io, ptr %160, i32 0, i32 23
  %162 = load i32, ptr %161, align 8, !tbaa !117
  %163 = icmp ne i32 %162, 0
  br i1 %163, label %164, label %189

164:                                              ; preds = %155
  %165 = load ptr, ptr %6, align 8, !tbaa !109
  %166 = getelementptr inbounds nuw %struct.VP8Io, ptr %165, i32 0, i32 24
  %167 = load i32, ptr %166, align 4, !tbaa !118
  %168 = load i32, ptr %8, align 4, !tbaa !7
  %169 = mul nsw i32 %168, 3
  %170 = sdiv i32 %169, 4
  %171 = icmp slt i32 %167, %170
  br i1 %171, label %172, label %180

172:                                              ; preds = %164
  %173 = load ptr, ptr %6, align 8, !tbaa !109
  %174 = getelementptr inbounds nuw %struct.VP8Io, ptr %173, i32 0, i32 25
  %175 = load i32, ptr %174, align 8, !tbaa !119
  %176 = load i32, ptr %9, align 4, !tbaa !7
  %177 = mul nsw i32 %176, 3
  %178 = sdiv i32 %177, 4
  %179 = icmp slt i32 %175, %178
  br label %180

180:                                              ; preds = %172, %164
  %181 = phi i1 [ false, %164 ], [ %179, %172 ]
  %182 = zext i1 %181 to i32
  %183 = load ptr, ptr %6, align 8, !tbaa !109
  %184 = getelementptr inbounds nuw %struct.VP8Io, ptr %183, i32 0, i32 17
  %185 = load i32, ptr %184, align 8, !tbaa !121
  %186 = or i32 %185, %182
  store i32 %186, ptr %184, align 8, !tbaa !121
  %187 = load ptr, ptr %6, align 8, !tbaa !109
  %188 = getelementptr inbounds nuw %struct.VP8Io, ptr %187, i32 0, i32 14
  store i32 0, ptr %188, align 8, !tbaa !123
  br label %189

189:                                              ; preds = %180, %155
  store i32 1, ptr %4, align 4
  store i32 1, ptr %14, align 4
  br label %190

190:                                              ; preds = %189, %131, %71
  call void @llvm.lifetime.end.p0(i64 4, ptr %13) #7
  call void @llvm.lifetime.end.p0(i64 4, ptr %12) #7
  call void @llvm.lifetime.end.p0(i64 4, ptr %11) #7
  call void @llvm.lifetime.end.p0(i64 4, ptr %10) #7
  call void @llvm.lifetime.end.p0(i64 4, ptr %9) #7
  call void @llvm.lifetime.end.p0(i64 4, ptr %8) #7
  %191 = load i32, ptr %4, align 4
  ret i32 %191
}