; Function Attrs: nounwind uwtable
define hidden range(i32 0, 2) i32 @WebPIoInitFromOptions(ptr noundef readonly captures(address_is_null) %0, ptr noundef captures(none) initializes((116, 120)) %1, i32 noundef %2) local_unnamed_addr #0 {
  %4 = alloca i32, align 4
  %5 = alloca i32, align 4
  %6 = load i32, ptr %1, align 8, !tbaa !49
  %7 = getelementptr inbounds nuw i8, ptr %1, i64 4
  %8 = load i32, ptr %7, align 4, !tbaa !50
  %.not = icmp eq ptr %0, null
  br i1 %.not, label %.critedge, label %9

9:                                                ; preds = %3
  %10 = getelementptr inbounds nuw i8, ptr %0, i64 8
  %11 = load i32, ptr %10, align 4, !tbaa !77
  %12 = icmp ne i32 %11, 0
  %13 = zext i1 %12 to i32
  %14 = getelementptr inbounds nuw i8, ptr %1, i64 116
  store i32 %13, ptr %14, align 4, !tbaa !91
  br i1 %12, label %15, label %37

15:                                               ; preds = %9
  %16 = getelementptr inbounds nuw i8, ptr %0, i64 20
  %17 = load i32, ptr %16, align 4, !tbaa !80
  %18 = getelementptr inbounds nuw i8, ptr %0, i64 24
  %19 = load i32, ptr %18, align 4, !tbaa !81
  %20 = getelementptr inbounds nuw i8, ptr %0, i64 12
  %21 = load i32, ptr %20, align 4, !tbaa !78
  %22 = getelementptr inbounds nuw i8, ptr %0, i64 16
  %23 = load i32, ptr %22, align 4, !tbaa !79
  %24 = icmp ugt i32 %2, 10
  %25 = and i32 %21, -2
  %26 = and i32 %23, -2
  %.163 = select i1 %24, i32 %25, i32 %21
  %.1 = select i1 %24, i32 %26, i32 %23
  %27 = or i32 %.1, %.163
  %or.cond.i.i = icmp slt i32 %27, 0
  %28 = icmp slt i32 %17, 1
  %29 = icmp slt i32 %19, 1
  %.not31.i = or i1 %28, %29
  %narrow.i.not.i = or i1 %.not31.i, %or.cond.i.i
  br i1 %narrow.i.not.i, label %WebPCheckCropDimensions.exit.thread, label %WebPCheckCropDimensions.exit

WebPCheckCropDimensions.exit:                     ; preds = %15
  %.not23.i = icmp sge i32 %.163, %6
  %30 = icmp sgt i32 %17, %6
  %or.cond.not34.not38.not43.i.not87 = or i1 %30, %.not23.i
  %31 = sub nsw i32 %6, %.163
  %32 = icmp sgt i32 %17, %31
  %or.cond26.not32.not36.not41.i.not85 = select i1 %or.cond.not34.not38.not43.i.not87, i1 true, i1 %32
  %.not24.i = icmp sge i32 %.1, %8
  %or.cond27.not35.not39.i.not83 = or i1 %.not24.i, %or.cond26.not32.not36.not41.i.not85
  %33 = icmp sgt i32 %19, %8
  %or.cond28.not.i.not82 = or i1 %33, %or.cond27.not35.not39.i.not83
  %34 = sub nsw i32 %8, %.1
  %35 = icmp sgt i32 %19, %34
  %narrow.i.not = select i1 %or.cond28.not.i.not82, i1 true, i1 %35
  br i1 %narrow.i.not, label %WebPCheckCropDimensions.exit.thread, label %37

.critedge:                                        ; preds = %3
  %36 = getelementptr inbounds nuw i8, ptr %1, i64 116
  store i32 0, ptr %36, align 4, !tbaa !91
  br label %37

37:                                               ; preds = %.critedge, %WebPCheckCropDimensions.exit, %9
  %.062 = phi i32 [ %.163, %WebPCheckCropDimensions.exit ], [ 0, %9 ], [ 0, %.critedge ]
  %.061 = phi i32 [ %.1, %WebPCheckCropDimensions.exit ], [ 0, %9 ], [ 0, %.critedge ]
  %.060 = phi i32 [ %17, %WebPCheckCropDimensions.exit ], [ %6, %9 ], [ %6, %.critedge ]
  %.059 = phi i32 [ %19, %WebPCheckCropDimensions.exit ], [ %8, %9 ], [ %8, %.critedge ]
  %38 = getelementptr inbounds nuw i8, ptr %1, i64 120
  store i32 %.062, ptr %38, align 8, !tbaa !92
  %39 = getelementptr inbounds nuw i8, ptr %1, i64 128
  store i32 %.061, ptr %39, align 8, !tbaa !93
  %40 = add nsw i32 %.060, %.062
  %41 = getelementptr inbounds nuw i8, ptr %1, i64 124
  store i32 %40, ptr %41, align 4, !tbaa !94
  %42 = add nsw i32 %.059, %.061
  %43 = getelementptr inbounds nuw i8, ptr %1, i64 132
  store i32 %42, ptr %43, align 4, !tbaa !95
  %44 = getelementptr inbounds nuw i8, ptr %1, i64 12
  store i32 %.060, ptr %44, align 4, !tbaa !96
  %45 = getelementptr inbounds nuw i8, ptr %1, i64 16
  store i32 %.059, ptr %45, align 8, !tbaa !97
  br i1 %.not, label %.thread78, label %46

46:                                               ; preds = %37
  %47 = getelementptr inbounds nuw i8, ptr %0, i64 28
  %48 = load i32, ptr %47, align 4, !tbaa !82
  %49 = icmp ne i32 %48, 0
  %50 = zext i1 %49 to i32
  %51 = getelementptr inbounds nuw i8, ptr %1, i64 136
  store i32 %50, ptr %51, align 8, !tbaa !98
  br i1 %49, label %52, label %67

52:                                               ; preds = %46
  call void @llvm.lifetime.start.p0(i64 4, ptr nonnull %4) #10
  %53 = getelementptr inbounds nuw i8, ptr %0, i64 32
  %54 = load i32, ptr %53, align 4, !tbaa !83
  store i32 %54, ptr %4, align 4, !tbaa !3
  call void @llvm.lifetime.start.p0(i64 4, ptr nonnull %5) #10
  %55 = getelementptr inbounds nuw i8, ptr %0, i64 36
  %56 = load i32, ptr %55, align 4, !tbaa !84
  store i32 %56, ptr %5, align 4, !tbaa !3
  %57 = call i32 @WebPRescalerGetScaledDimensions(i32 noundef %.060, i32 noundef %.059, ptr noundef nonnull %4, ptr noundef nonnull %5) #10
  %.not70.not = icmp eq i32 %57, 0
  br i1 %.not70.not, label %.critedge74, label %58

58:                                               ; preds = %52
  %59 = load i32, ptr %4, align 4, !tbaa !3
  %60 = getelementptr inbounds nuw i8, ptr %1, i64 140
  store i32 %59, ptr %60, align 4, !tbaa !99
  %61 = load i32, ptr %5, align 4, !tbaa !3
  %62 = getelementptr inbounds nuw i8, ptr %1, i64 144
  store i32 %61, ptr %62, align 8, !tbaa !100
  call void @llvm.lifetime.end.p0(i64 4, ptr nonnull %5) #10
  call void @llvm.lifetime.end.p0(i64 4, ptr nonnull %4) #10
  %.pr.pre = load i32, ptr %51, align 8, !tbaa !98
  %63 = icmp eq i32 %.pr.pre, 0
  br label %67

.thread78:                                        ; preds = %37
  %64 = getelementptr inbounds nuw i8, ptr %1, i64 136
  store i32 0, ptr %64, align 8, !tbaa !98
  %65 = getelementptr inbounds nuw i8, ptr %1, i64 112
  store i32 0, ptr %65, align 8, !tbaa !101
  %66 = getelementptr inbounds nuw i8, ptr %1, i64 88
  store i32 1, ptr %66, align 8, !tbaa !102
  br label %WebPCheckCropDimensions.exit.thread

67:                                               ; preds = %46, %58
  %.pr = phi i1 [ true, %46 ], [ %63, %58 ]
  %68 = load i32, ptr %0, align 4, !tbaa !103
  %69 = icmp ne i32 %68, 0
  %70 = zext i1 %69 to i32
  %71 = getelementptr inbounds nuw i8, ptr %1, i64 112
  store i32 %70, ptr %71, align 8, !tbaa !101
  %72 = getelementptr inbounds nuw i8, ptr %0, i64 4
  %73 = load i32, ptr %72, align 4, !tbaa !104
  %.not71 = icmp eq i32 %73, 0
  %74 = zext i1 %.not71 to i32
  %75 = getelementptr inbounds nuw i8, ptr %1, i64 88
  store i32 %74, ptr %75, align 8, !tbaa !102
  br i1 %.pr, label %WebPCheckCropDimensions.exit.thread, label %76

76:                                               ; preds = %67
  %77 = getelementptr inbounds nuw i8, ptr %1, i64 140
  %78 = load i32, ptr %77, align 4, !tbaa !99
  %79 = mul nsw i32 %6, 3
  %80 = sdiv i32 %79, 4
  %81 = icmp slt i32 %78, %80
  br i1 %81, label %82, label %89

82:                                               ; preds = %76
  %83 = getelementptr inbounds nuw i8, ptr %1, i64 144
  %84 = load i32, ptr %83, align 8, !tbaa !100
  %85 = mul nsw i32 %8, 3
  %86 = sdiv i32 %85, 4
  %87 = icmp slt i32 %84, %86
  %88 = zext i1 %87 to i32
  br label %89

89:                                               ; preds = %82, %76
  %90 = phi i32 [ 0, %76 ], [ %88, %82 ]
  %91 = or i32 %90, %70
  store i32 %91, ptr %71, align 8, !tbaa !101
  store i32 0, ptr %75, align 8, !tbaa !102
  br label %WebPCheckCropDimensions.exit.thread

.critedge74:                                      ; preds = %52
  call void @llvm.lifetime.end.p0(i64 4, ptr nonnull %5) #10
  call void @llvm.lifetime.end.p0(i64 4, ptr nonnull %4) #10
  br label %WebPCheckCropDimensions.exit.thread

WebPCheckCropDimensions.exit.thread:              ; preds = %15, %.thread78, %67, %89, %.critedge74, %WebPCheckCropDimensions.exit
  %.064 = phi i32 [ 0, %WebPCheckCropDimensions.exit ], [ 0, %.critedge74 ], [ 1, %89 ], [ 1, %67 ], [ 1, %.thread78 ], [ 0, %15 ]
  ret i32 %.064
}